target datalayout = "e-m:e-p270:32:32-p271:32:32-p272:64:64-i64:64-i128:128-f80:128-n8:16:32:64-S128"
target triple = "x86_64-pc-linux-gnu"

%"class.absl::synchronization_internal::GraphCycles" = type { ptr }
%"struct.absl::synchronization_internal::GraphCycles::Rep" = type { %"class.absl::synchronization_internal::(anonymous namespace)::Vec", %"class.absl::synchronization_internal::(anonymous namespace)::Vec.0", %"class.absl::synchronization_internal::(anonymous namespace)::PointerMap", %"class.absl::synchronization_internal::(anonymous namespace)::Vec.0", %"class.absl::synchronization_internal::(anonymous namespace)::Vec.0", %"class.absl::synchronization_internal::(anonymous namespace)::Vec.0", %"class.absl::synchronization_internal::(anonymous namespace)::Vec.0", %"class.absl::synchronization_internal::(anonymous namespace)::Vec.0" }
%"class.absl::synchronization_internal::(anonymous namespace)::Vec" = type { ptr, [8 x ptr], i32, i32 }
%"class.absl::synchronization_internal::(anonymous namespace)::PointerMap" = type <{ ptr, %"struct.std::array", [4 x i8] }>
%"struct.std::array" = type { [262139 x i32] }
%"class.absl::synchronization_internal::(anonymous namespace)::Vec.0" = type { ptr, [8 x i32], i32, i32 }

@_ZN4absl24synchronization_internal12_GLOBAL__N_15arenaE = internal global ptr null, align 8

; Function Attrs: mustprogress nounwind uwtable
define internal noundef ptr @_ZNSt11__copy_moveILb0ELb1ESt26random_access_iterator_tagE8__copy_mIPN4absl24synchronization_internal12_GLOBAL__N_14NodeEEEPT_PKS8_SB_S9_(ptr noundef %0, ptr noundef %1, ptr noundef %2) #2 align 2 {
  %4 = alloca ptr, align 8
  %5 = alloca ptr, align 8
  %6 = alloca ptr, align 8
  %7 = alloca i64, align 8
  store ptr %0, ptr %4, align 8, !tbaa !28
  store ptr %1, ptr %5, align 8, !tbaa !28
  store ptr %2, ptr %6, align 8, !tbaa !28
  call void @llvm.lifetime.start.p0(i64 8, ptr %7) #12
  %8 = load ptr, ptr %5, align 8, !tbaa !28
  %9 = load ptr, ptr %4, align 8, !tbaa !28
  %10 = ptrtoint ptr %8 to i64
  %11 = ptrtoint ptr %9 to i64
  %12 = sub i64 %10, %11
  %13 = sdiv exact i64 %12, 8
  store i64 %13, ptr %7, align 8, !tbaa !47
  %14 = load i64, ptr %7, align 8, !tbaa !47
  %15 = icmp ne i64 %14, 0
  br i1 %15, label %16, label %21

16:                                               ; preds = %3
  %17 = load ptr, ptr %6, align 8, !tbaa !28
  %18 = load ptr, ptr %4, align 8, !tbaa !28
  %19 = load i64, ptr %7, align 8, !tbaa !47
  %20 = mul i64 8, %19
  call void @llvm.memmove.p0.p0.i64(ptr align 8 %17, ptr align 8 %18, i64 %20, i1 false)
  br label %21

21:                                               ; preds = %16, %3
  %22 = load ptr, ptr %6, align 8, !tbaa !28
  %23 = load i64, ptr %7, align 8, !tbaa !47
  %24 = getelementptr inbounds ptr, ptr %22, i64 %23
  call void @llvm.lifetime.end.p0(i64 8, ptr %7) #12
  ret ptr %24
}

; Function Attrs: inlinehint mustprogress uwtable
define internal noundef ptr @_ZSt14__copy_move_a2ILb0EPPN4absl24synchronization_internal12_GLOBAL__N_14NodeES5_ET1_T0_S7_S6_(ptr noundef %0, ptr noundef %1, ptr noundef %2) #6 {
  %4 = alloca ptr, align 8
  %5 = alloca ptr, align 8
  %6 = alloca ptr, align 8
  store ptr %0, ptr %4, align 8, !tbaa !28
  store ptr %1, ptr %5, align 8, !tbaa !28
  store ptr %2, ptr %6, align 8, !tbaa !28
  %7 = load ptr, ptr %4, align 8, !tbaa !28
  %8 = load ptr, ptr %5, align 8, !tbaa !28
  %9 = load ptr, ptr %6, align 8, !tbaa !28
  %10 = call noundef ptr @_ZNSt11__copy_moveILb0ELb1ESt26random_access_iterator_tagE8__copy_mIPN4absl24synchronization_internal12_GLOBAL__N_14NodeEEEPT_PKS8_SB_S9_(ptr noundef %7, ptr noundef %8, ptr noundef %9)
  ret ptr %10
}

; Function Attrs: inlinehint mustprogress nounwind uwtable
define internal noundef ptr @_ZSt12__niter_wrapIPPN4absl24synchronization_internal12_GLOBAL__N_14NodeEET_RKS6_S6_(ptr noundef nonnull align 8 dereferenceable(8) %0, ptr noundef %1) #5 {
  %3 = alloca ptr, align 8
  %4 = alloca ptr, align 8
  store ptr %0, ptr %3, align 8, !tbaa !125
  store ptr %1, ptr %4, align 8, !tbaa !28
  %5 = load ptr, ptr %4, align 8, !tbaa !28
  ret ptr %5
}

; Function Attrs: inlinehint mustprogress uwtable
define internal noundef ptr @_ZSt14__copy_move_a1ILb0EPPN4absl24synchronization_internal12_GLOBAL__N_14NodeES5_ET1_T0_S7_S6_(ptr noundef %0, ptr noundef %1, ptr noundef %2) #6 {
  %4 = alloca ptr, align 8
  %5 = alloca ptr, align 8
  %6 = alloca ptr, align 8
  store ptr %0, ptr %4, align 8, !tbaa !28
  store ptr %1, ptr %5, align 8, !tbaa !28
  store ptr %2, ptr %6, align 8, !tbaa !28
  %7 = load ptr, ptr %4, align 8, !tbaa !28
  %8 = load ptr, ptr %5, align 8, !tbaa !28
  %9 = load ptr, ptr %6, align 8, !tbaa !28
  %10 = call noundef ptr @_ZSt14__copy_move_a2ILb0EPPN4absl24synchronization_internal12_GLOBAL__N_14NodeES5_ET1_T0_S7_S6_(ptr noundef %7, ptr noundef %8, ptr noundef %9)
  ret ptr %10
}

; Function Attrs: inlinehint mustprogress nounwind uwtable
define internal noundef ptr @_ZSt12__niter_baseIPPN4absl24synchronization_internal12_GLOBAL__N_14NodeEET_S6_(ptr noundef %0) #5 {
  %2 = alloca ptr, align 8
  store ptr %0, ptr %2, align 8, !tbaa !28
  %3 = load ptr, ptr %2, align 8, !tbaa !28
  ret ptr %3
}

; Function Attrs: inlinehint mustprogress uwtable
define internal noundef ptr @_ZSt13__copy_move_aILb0EPPN4absl24synchronization_internal12_GLOBAL__N_14NodeES5_ET1_T0_S7_S6_(ptr noundef %0, ptr noundef %1, ptr noundef %2) #6 {
  %4 = alloca ptr, align 8
  %5 = alloca ptr, align 8
  %6 = alloca ptr, align 8
  store ptr %0, ptr %4, align 8, !tbaa !28
  store ptr %1, ptr %5, align 8, !tbaa !28
  store ptr %2, ptr %6, align 8, !tbaa !28
  %7 = load ptr, ptr %4, align 8, !tbaa !28
  %8 = call noundef ptr @_ZSt12__niter_baseIPPN4absl24synchronization_internal12_GLOBAL__N_14NodeEET_S6_(ptr noundef %7) #12
  %9 = load ptr, ptr %5, align 8, !tbaa !28
  %10 = call noundef ptr @_ZSt12__niter_baseIPPN4absl24synchronization_internal12_GLOBAL__N_14NodeEET_S6_(ptr noundef %9) #12
  %11 = load ptr, ptr %6, align 8, !tbaa !28
  %12 = call noundef ptr @_ZSt12__niter_baseIPPN4absl24synchronization_internal12_GLOBAL__N_14NodeEET_S6_(ptr noundef %11) #12
  %13 = call noundef ptr @_ZSt14__copy_move_a1ILb0EPPN4absl24synchronization_internal12_GLOBAL__N_14NodeES5_ET1_T0_S7_S6_(ptr noundef %8, ptr noundef %10, ptr noundef %12)
  %14 = call noundef ptr @_ZSt12__niter_wrapIPPN4absl24synchronization_internal12_GLOBAL__N_14NodeEET_RKS6_S6_(ptr noundef nonnull align 8 dereferenceable(8) %6, ptr noundef %13)
  ret ptr %14
}

; Function Attrs: inlinehint mustprogress nounwind uwtable
define internal noundef ptr @_ZSt12__miter_baseIPPN4absl24synchronization_internal12_GLOBAL__N_14NodeEET_S6_(ptr noundef %0) #5 {
  %2 = alloca ptr, align 8
  store ptr %0, ptr %2, align 8, !tbaa !28
  %3 = load ptr, ptr %2, align 8, !tbaa !28
  ret ptr %3
}

; Function Attrs: inlinehint mustprogress uwtable
define internal noundef ptr @_ZSt4copyIPPN4absl24synchronization_internal12_GLOBAL__N_14NodeES5_ET0_T_S7_S6_(ptr noundef %0, ptr noundef %1, ptr noundef %2) #6 {
  %4 = alloca ptr, align 8
  %5 = alloca ptr, align 8
  %6 = alloca ptr, align 8
  store ptr %0, ptr %4, align 8, !tbaa !28
  store ptr %1, ptr %5, align 8, !tbaa !28
  store ptr %2, ptr %6, align 8, !tbaa !28
  %7 = load ptr, ptr %4, align 8, !tbaa !28
  %8 = call noundef ptr @_ZSt12__miter_baseIPPN4absl24synchronization_internal12_GLOBAL__N_14NodeEET_S6_(ptr noundef %7)
  %9 = load ptr, ptr %5, align 8, !tbaa !28
  %10 = call noundef ptr @_ZSt12__miter_baseIPPN4absl24synchronization_internal12_GLOBAL__N_14NodeEET_S6_(ptr noundef %9)
  %11 = load ptr, ptr %6, align 8, !tbaa !28
  %12 = call noundef ptr @_ZSt13__copy_move_aILb0EPPN4absl24synchronization_internal12_GLOBAL__N_14NodeES5_ET1_T0_S7_S6_(ptr noundef %8, ptr noundef %10, ptr noundef %11)
  ret ptr %12
}

; Function Attrs: inlinehint mustprogress uwtable
define internal noundef ptr @_ZSt8__copy_nIPPN4absl24synchronization_internal12_GLOBAL__N_14NodeEjS5_ET1_T_T0_S6_St26random_access_iterator_tag(ptr noundef %0, i32 noundef %1, ptr noundef %2) #6 {
  %4 = alloca ptr, align 8
  %5 = alloca i32, align 4
  %6 = alloca ptr, align 8
  store ptr %0, ptr %4, align 8, !tbaa !28
  store i32 %1, ptr %5, align 4, !tbaa !9
  store ptr %2, ptr %6, align 8, !tbaa !28
  %7 = load ptr, ptr %4, align 8, !tbaa !28
  %8 = load ptr, ptr %4, align 8, !tbaa !28
  %9 = load i32, ptr %5, align 4, !tbaa !9
  %10 = zext i32 %9 to i64
  %11 = getelementptr inbounds nuw ptr, ptr %8, i64 %10
  %12 = load ptr, ptr %6, align 8, !tbaa !28
  %13 = call noundef ptr @_ZSt4copyIPPN4absl24synchronization_internal12_GLOBAL__N_14NodeES5_ET0_T_S7_S6_(ptr noundef %7, ptr noundef %11, ptr noundef %12)
  ret ptr %13
}

; Function Attrs: inlinehint mustprogress nounwind uwtable
define internal void @_ZSt19__iterator_categoryIPPN4absl24synchronization_internal12_GLOBAL__N_14NodeEENSt15iterator_traitsIT_E17iterator_categoryERKS7_(ptr noundef nonnull align 8 dereferenceable(8) %0) #5 {
  %2 = alloca ptr, align 8
  store ptr %0, ptr %2, align 8, !tbaa !125
  ret void
}

; Function Attrs: inlinehint mustprogress nounwind uwtable
define linkonce_odr dso_local noundef i32 @_ZSt17__size_to_integerj(i32 noundef %0) #5 comdat {
  %2 = alloca i32, align 4
  store i32 %0, ptr %2, align 4, !tbaa !9
  %3 = load i32, ptr %2, align 4, !tbaa !9
  ret i32 %3
}

; Function Attrs: mustprogress uwtable
define internal void @_ZN4absl24synchronization_internal12_GLOBAL__N_13VecIPNS1_4NodeEE7DiscardEv(ptr noundef nonnull align 8 dereferenceable(80) %0) #0 align 2 {
  %2 = alloca ptr, align 8
  store ptr %0, ptr %2, align 8, !tbaa !18
  %3 = load ptr, ptr %2, align 8
  %4 = getelementptr inbounds nuw %"class.absl::synchronization_internal::(anonymous namespace)::Vec", ptr %3, i32 0, i32 0
  %5 = load ptr, ptr %4, align 8, !tbaa !24
  %6 = getelementptr inbounds nuw %"class.absl::synchronization_internal::(anonymous namespace)::Vec", ptr %3, i32 0, i32 1
  %7 = getelementptr inbounds [8 x ptr], ptr %6, i64 0, i64 0
  %8 = icmp ne ptr %5, %7
  br i1 %8, label %9, label %12

9:                                                ; preds = %1
  %10 = getelementptr inbounds nuw %"class.absl::synchronization_internal::(anonymous namespace)::Vec", ptr %3, i32 0, i32 0
  %11 = load ptr, ptr %10, align 8, !tbaa !24
  call void @_ZN4absl13base_internal13LowLevelAlloc4FreeEPv(ptr noundef %11)
  br label %12

12:                                               ; preds = %9, %1
  ret void
}

; Function Attrs: inlinehint mustprogress uwtable
define internal noundef ptr @_ZSt6copy_nIPPN4absl24synchronization_internal12_GLOBAL__N_14NodeEjS5_ET1_T_T0_S6_(ptr noundef %0, i32 noundef %1, ptr noundef %2) #6 {
  %4 = alloca ptr, align 8
  %5 = alloca ptr, align 8
  %6 = alloca i32, align 4
  %7 = alloca ptr, align 8
  %8 = alloca i32, align 4
  %9 = alloca i32, align 4
  store ptr %0, ptr %5, align 8, !tbaa !28
  store i32 %1, ptr %6, align 4, !tbaa !9
  store ptr %2, ptr %7, align 8, !tbaa !28
  call void @llvm.lifetime.start.p0(i64 4, ptr %8) #12
  %10 = load i32, ptr %6, align 4, !tbaa !9
  %11 = call noundef i32 @_ZSt17__size_to_integerj(i32 noundef %10)
  store i32 %11, ptr %8, align 4, !tbaa !9
  %12 = load i32, ptr %8, align 4, !tbaa !9
  %13 = icmp ule i32 %12, 0
  br i1 %13, label %14, label %16

14:                                               ; preds = %3
  %15 = load ptr, ptr %7, align 8, !tbaa !28
  store ptr %15, ptr %4, align 8
  store i32 1, ptr %9, align 4
  br label %21

16:                                               ; preds = %3
  %17 = load ptr, ptr %5, align 8, !tbaa !28
  %18 = load i32, ptr %8, align 4, !tbaa !9
  %19 = load ptr, ptr %7, align 8, !tbaa !28
  call void @_ZSt19__iterator_categoryIPPN4absl24synchronization_internal12_GLOBAL__N_14NodeEENSt15iterator_traitsIT_E17iterator_categoryERKS7_(ptr noundef nonnull align 8 dereferenceable(8) %5)
  %20 = call noundef ptr @_ZSt8__copy_nIPPN4absl24synchronization_internal12_GLOBAL__N_14NodeEjS5_ET1_T_T0_S6_St26random_access_iterator_tag(ptr noundef %17, i32 noundef %18, ptr noundef %19)
  store ptr %20, ptr %4, align 8
  store i32 1, ptr %9, align 4
  br label %21

21:                                               ; preds = %16, %14
  call void @llvm.lifetime.end.p0(i64 4, ptr %8) #12
  %22 = load ptr, ptr %4, align 8
  ret ptr %22
}

; Function Attrs: mustprogress uwtable
define internal void @_ZN4absl24synchronization_internal12_GLOBAL__N_13VecIPNS1_4NodeEE4GrowEj(ptr noundef nonnull align 8 dereferenceable(80) %0, i32 noundef %1) #0 align 2 {
  %3 = alloca ptr, align 8
  %4 = alloca i32, align 4
  %5 = alloca i64, align 8
  %6 = alloca ptr, align 8
  store ptr %0, ptr %3, align 8, !tbaa !18
  store i32 %1, ptr %4, align 4, !tbaa !9
  %7 = load ptr, ptr %3, align 8
  br label %8

8:                                                ; preds = %13, %2
  %9 = getelementptr inbounds nuw %"class.absl::synchronization_internal::(anonymous namespace)::Vec", ptr %7, i32 0, i32 3
  %10 = load i32, ptr %9, align 4, !tbaa !23
  %11 = load i32, ptr %4, align 4, !tbaa !9
  %12 = icmp ult i32 %10, %11
  br i1 %12, label %13, label %17

13:                                               ; preds = %8
  %14 = getelementptr inbounds nuw %"class.absl::synchronization_internal::(anonymous namespace)::Vec", ptr %7, i32 0, i32 3
  %15 = load i32, ptr %14, align 4, !tbaa !23
  %16 = mul i32 %15, 2
  store i32 %16, ptr %14, align 4, !tbaa !23
  br label %8, !llvm.loop !124

17:                                               ; preds = %8
  call void @llvm.lifetime.start.p0(i64 8, ptr %5) #12
  %18 = getelementptr inbounds nuw %"class.absl::synchronization_internal::(anonymous namespace)::Vec", ptr %7, i32 0, i32 3
  %19 = load i32, ptr %18, align 4, !tbaa !23
  %20 = zext i32 %19 to i64
  %21 = mul i64 %20, 8
  store i64 %21, ptr %5, align 8, !tbaa !47
  call void @llvm.lifetime.start.p0(i64 8, ptr %6) #12
  %22 = load i64, ptr %5, align 8, !tbaa !47
  %23 = load ptr, ptr @_ZN4absl24synchronization_internal12_GLOBAL__N_15arenaE, align 8, !tbaa !25
  %24 = call noundef ptr @_ZN4absl13base_internal13LowLevelAlloc14AllocWithArenaEmPNS1_5ArenaE(i64 noundef %22, ptr noundef %23)
  store ptr %24, ptr %6, align 8, !tbaa !28
  %25 = getelementptr inbounds nuw %"class.absl::synchronization_internal::(anonymous namespace)::Vec", ptr %7, i32 0, i32 0
  %26 = load ptr, ptr %25, align 8, !tbaa !24
  %27 = getelementptr inbounds nuw %"class.absl::synchronization_internal::(anonymous namespace)::Vec", ptr %7, i32 0, i32 2
  %28 = load i32, ptr %27, align 8, !tbaa !20
  %29 = load ptr, ptr %6, align 8, !tbaa !28
  %30 = call noundef ptr @_ZSt6copy_nIPPN4absl24synchronization_internal12_GLOBAL__N_14NodeEjS5_ET1_T_T0_S6_(ptr noundef %26, i32 noundef %28, ptr noundef %29)
  call void @_ZN4absl24synchronization_internal12_GLOBAL__N_13VecIPNS1_4NodeEE7DiscardEv(ptr noundef nonnull align 8 dereferenceable(80) %7)
  %31 = load ptr, ptr %6, align 8, !tbaa !28
  %32 = getelementptr inbounds nuw %"class.absl::synchronization_internal::(anonymous namespace)::Vec", ptr %7, i32 0, i32 0
  store ptr %31, ptr %32, align 8, !tbaa !24
  call void @llvm.lifetime.end.p0(i64 8, ptr %6) #12
  call void @llvm.lifetime.end.p0(i64 8, ptr %5) #12
  ret void
}

; Function Attrs: mustprogress nounwind uwtable
define internal noundef nonnull align 8 dereferenceable(8) ptr @_ZN4absl24synchronization_internal12_GLOBAL__N_13VecIPNS1_4NodeEEixEj(ptr noundef nonnull align 8 dereferenceable(80) %0, i32 noundef %1) #2 align 2 {
  %3 = alloca ptr, align 8
  %4 = alloca i32, align 4
  store ptr %0, ptr %3, align 8, !tbaa !18
  store i32 %1, ptr %4, align 4, !tbaa !9
  %5 = load ptr, ptr %3, align 8
  %6 = getelementptr inbounds nuw %"class.absl::synchronization_internal::(anonymous namespace)::Vec", ptr %5, i32 0, i32 0
  %7 = load ptr, ptr %6, align 8, !tbaa !24
  %8 = load i32, ptr %4, align 4, !tbaa !9
  %9 = zext i32 %8 to i64
  %10 = getelementptr inbounds nuw ptr, ptr %7, i64 %9
  ret ptr %10
}

; Function Attrs: mustprogress uwtable
define internal void @_ZN4absl24synchronization_internal12_GLOBAL__N_13VecIPNS1_4NodeEE6resizeEj(ptr noundef nonnull align 8 dereferenceable(80) %0, i32 noundef %1) #0 align 2 {
  %3 = alloca ptr, align 8
  %4 = alloca i32, align 4
  store ptr %0, ptr %3, align 8, !tbaa !18
  store i32 %1, ptr %4, align 4, !tbaa !9
  %5 = load ptr, ptr %3, align 8
  %6 = load i32, ptr %4, align 4, !tbaa !9
  %7 = getelementptr inbounds nuw %"class.absl::synchronization_internal::(anonymous namespace)::Vec", ptr %5, i32 0, i32 3
  %8 = load i32, ptr %7, align 4, !tbaa !23
  %9 = icmp ugt i32 %6, %8
  br i1 %9, label %10, label %12

10:                                               ; preds = %2
  %11 = load i32, ptr %4, align 4, !tbaa !9
  call void @_ZN4absl24synchronization_internal12_GLOBAL__N_13VecIPNS1_4NodeEE4GrowEj(ptr noundef nonnull align 8 dereferenceable(80) %5, i32 noundef %11)
  br label %12

12:                                               ; preds = %10, %2
  %13 = load i32, ptr %4, align 4, !tbaa !9
  %14 = getelementptr inbounds nuw %"class.absl::synchronization_internal::(anonymous namespace)::Vec", ptr %5, i32 0, i32 2
  store i32 %13, ptr %14, align 8, !tbaa !20
  ret void
}

; Function Attrs: mustprogress nounwind uwtable
define internal noundef i32 @_ZNK4absl24synchronization_internal12_GLOBAL__N_13VecIPNS1_4NodeEE4sizeEv(ptr noundef nonnull align 8 dereferenceable(80) %0) #2 align 2 {
  %2 = alloca ptr, align 8
  store ptr %0, ptr %2, align 8, !tbaa !18
  %3 = load ptr, ptr %2, align 8
  %4 = getelementptr inbounds nuw %"class.absl::synchronization_internal::(anonymous namespace)::Vec", ptr %3, i32 0, i32 2
  %5 = load i32, ptr %4, align 8, !tbaa !20
  ret i32 %5
}

; Function Attrs: mustprogress uwtable
define dso_local void @_ZN4absl24synchronization_internal11GraphCycles16TestOnlyAddNodesEj(ptr noundef nonnull align 8 dereferenceable(8) %0, i32 noundef %1) #0 align 2 {
  %3 = alloca ptr, align 8
  %4 = alloca i32, align 4
  %5 = alloca i32, align 4
  %6 = alloca i32, align 4
  store ptr %0, ptr %3, align 8, !tbaa !4
  store i32 %1, ptr %4, align 4, !tbaa !9
  %7 = load ptr, ptr %3, align 8
  call void @llvm.lifetime.start.p0(i64 4, ptr %5) #12
  %8 = getelementptr inbounds nuw %"class.absl::synchronization_internal::GraphCycles", ptr %7, i32 0, i32 0
  %9 = load ptr, ptr %8, align 8, !tbaa !11
  %10 = getelementptr inbounds nuw %"struct.absl::synchronization_internal::GraphCycles::Rep", ptr %9, i32 0, i32 0
  %11 = call noundef i32 @_ZNK4absl24synchronization_internal12_GLOBAL__N_13VecIPNS1_4NodeEE4sizeEv(ptr noundef nonnull align 8 dereferenceable(80) %10)
  store i32 %11, ptr %5, align 4, !tbaa !9
  %12 = getelementptr inbounds nuw %"class.absl::synchronization_internal::GraphCycles", ptr %7, i32 0, i32 0
  %13 = load ptr, ptr %12, align 8, !tbaa !11
  %14 = getelementptr inbounds nuw %"struct.absl::synchronization_internal::GraphCycles::Rep", ptr %13, i32 0, i32 0
  %15 = load i32, ptr %4, align 4, !tbaa !9
  call void @_ZN4absl24synchronization_internal12_GLOBAL__N_13VecIPNS1_4NodeEE6resizeEj(ptr noundef nonnull align 8 dereferenceable(80) %14, i32 noundef %15)
  call void @llvm.lifetime.start.p0(i64 4, ptr %6) #12
  %16 = load i32, ptr %5, align 4, !tbaa !9
  store i32 %16, ptr %6, align 4, !tbaa !9
  br label %17

17:                                               ; preds = %28, %2
  %18 = load i32, ptr %6, align 4, !tbaa !9
  %19 = load i32, ptr %4, align 4, !tbaa !9
  %20 = icmp ult i32 %18, %19
  br i1 %20, label %22, label %21

21:                                               ; preds = %17
  call void @llvm.lifetime.end.p0(i64 4, ptr %6) #12
  br label %31

22:                                               ; preds = %17
  %23 = getelementptr inbounds nuw %"class.absl::synchronization_internal::GraphCycles", ptr %7, i32 0, i32 0
  %24 = load ptr, ptr %23, align 8, !tbaa !11
  %25 = getelementptr inbounds nuw %"struct.absl::synchronization_internal::GraphCycles::Rep", ptr %24, i32 0, i32 0
  %26 = load i32, ptr %6, align 4, !tbaa !9
  %27 = call noundef nonnull align 8 dereferenceable(8) ptr @_ZN4absl24synchronization_internal12_GLOBAL__N_13VecIPNS1_4NodeEEixEj(ptr noundef nonnull align 8 dereferenceable(80) %25, i32 noundef %26)
  store ptr null, ptr %27, align 8, !tbaa !14
  br label %28

28:                                               ; preds = %22
  %29 = load i32, ptr %6, align 4, !tbaa !9
  %30 = add i32 %29, 1
  store i32 %30, ptr %6, align 4, !tbaa !9
  br label %17, !llvm.loop !16

31:                                               ; preds = %21
  call void @llvm.lifetime.end.p0(i64 4, ptr %5) #12
  ret void
}