; Function Attrs: mustprogress uwtable
define dso_local void @_ZN4absl24synchronization_internal11GraphCycles16TestOnlyAddNodesEj(ptr noundef nonnull readonly align 8 captures(none) dereferenceable(8) %0, i32 noundef %1) local_unnamed_addr #0 align 2 {
  %3 = load ptr, ptr %0, align 8, !tbaa !4
  %4 = getelementptr i8, ptr %3, i64 72
  %.val = load i32, ptr %4, align 8, !tbaa !10
  %5 = getelementptr inbounds nuw i8, ptr %3, i64 76
  %6 = load i32, ptr %5, align 4, !tbaa !14
  %7 = icmp ugt i32 %1, %6
  br i1 %7, label %.lr.ph.i.i, label %_ZN4absl24synchronization_internal12_GLOBAL__N_13VecIPNS1_4NodeEE6resizeEj.exit

.lr.ph.i.i:                                       ; preds = %2, %.lr.ph.i.i
  %8 = phi i32 [ %9, %.lr.ph.i.i ], [ %6, %2 ]
  %9 = shl i32 %8, 1
  %10 = icmp ult i32 %9, %1
  br i1 %10, label %.lr.ph.i.i, label %11, !llvm.loop !15

11:                                               ; preds = %.lr.ph.i.i
  store i32 %9, ptr %5, align 4, !tbaa !14
  %12 = zext i32 %9 to i64
  %13 = shl nuw nsw i64 %12, 3
  %14 = load ptr, ptr @_ZN4absl24synchronization_internal12_GLOBAL__N_15arenaE, align 8, !tbaa !17
  %15 = tail call noundef ptr @_ZN4absl13base_internal13LowLevelAlloc14AllocWithArenaEmPNS1_5ArenaE(i64 noundef %13, ptr noundef %14)
  %16 = load i32, ptr %4, align 8, !tbaa !10
  %17 = icmp eq i32 %16, 0
  br i1 %17, label %_ZSt6copy_nIPPN4absl24synchronization_internal12_GLOBAL__N_14NodeEjS5_ET1_T_T0_S6_.exit.i.i, label %18

18:                                               ; preds = %11
  %19 = load ptr, ptr %3, align 8, !tbaa !19
  %20 = zext i32 %16 to i64
  %.idx.i.i.i.i = shl nuw nsw i64 %20, 3
  tail call void @llvm.memmove.p0.p0.i64(ptr noundef nonnull align 8 dereferenceable(1) %15, ptr noundef nonnull readonly align 8 dereferenceable(1) %19, i64 %.idx.i.i.i.i, i1 false)
  br label %_ZSt6copy_nIPPN4absl24synchronization_internal12_GLOBAL__N_14NodeEjS5_ET1_T_T0_S6_.exit.i.i

_ZSt6copy_nIPPN4absl24synchronization_internal12_GLOBAL__N_14NodeEjS5_ET1_T_T0_S6_.exit.i.i: ; preds = %18, %11
  %21 = load ptr, ptr %3, align 8, !tbaa !19
  %22 = getelementptr inbounds nuw i8, ptr %3, i64 8
  %.not.i.i.i = icmp eq ptr %21, %22
  br i1 %.not.i.i.i, label %_ZN4absl24synchronization_internal12_GLOBAL__N_13VecIPNS1_4NodeEE4GrowEj.exit.i, label %23

23:                                               ; preds = %_ZSt6copy_nIPPN4absl24synchronization_internal12_GLOBAL__N_14NodeEjS5_ET1_T_T0_S6_.exit.i.i
  tail call void @_ZN4absl13base_internal13LowLevelAlloc4FreeEPv(ptr noundef %21)
  br label %_ZN4absl24synchronization_internal12_GLOBAL__N_13VecIPNS1_4NodeEE4GrowEj.exit.i

_ZN4absl24synchronization_internal12_GLOBAL__N_13VecIPNS1_4NodeEE4GrowEj.exit.i: ; preds = %23, %_ZSt6copy_nIPPN4absl24synchronization_internal12_GLOBAL__N_14NodeEjS5_ET1_T_T0_S6_.exit.i.i
  store ptr %15, ptr %3, align 8, !tbaa !19
  br label %_ZN4absl24synchronization_internal12_GLOBAL__N_13VecIPNS1_4NodeEE6resizeEj.exit

_ZN4absl24synchronization_internal12_GLOBAL__N_13VecIPNS1_4NodeEE6resizeEj.exit: ; preds = %2, %_ZN4absl24synchronization_internal12_GLOBAL__N_13VecIPNS1_4NodeEE4GrowEj.exit.i
  store i32 %1, ptr %4, align 8, !tbaa !10
  %24 = icmp ult i32 %.val, %1
  br i1 %24, label %.lr.ph, label %._crit_edge

.lr.ph:                                           ; preds = %_ZN4absl24synchronization_internal12_GLOBAL__N_13VecIPNS1_4NodeEE6resizeEj.exit
  %25 = load ptr, ptr %0, align 8, !tbaa !4
  %.val6 = load ptr, ptr %25, align 8, !tbaa !19
  %26 = zext i32 %.val to i64
  %27 = shl nuw nsw i64 %26, 3
  %scevgep = getelementptr nuw i8, ptr %.val6, i64 %27
  %28 = xor i32 %.val, -1
  %29 = add i32 %1, %28
  %30 = zext i32 %29 to i64
  %31 = shl nuw nsw i64 %30, 3
  %32 = add nuw nsw i64 %31, 8
  tail call void @llvm.memset.p0.i64(ptr noundef nonnull align 8 dereferenceable(1) %scevgep, i8 0, i64 %32, i1 false), !tbaa !20
  br label %._crit_edge

._crit_edge:                                      ; preds = %.lr.ph, %_ZN4absl24synchronization_internal12_GLOBAL__N_13VecIPNS1_4NodeEE6resizeEj.exit
  ret void
}